; ModuleID = '24/2265.c'
source_filename = "24/2265.c"
target datalayout = "e-m:e-p270:32:32-p271:32:32-p272:64:64-i64:64-f80:128-n8:16:32:64-S128"
target triple = "x86_64-pc-linux-gnu"

; Function Attrs: noinline nounwind uwtable
define dso_local void @main() #0 {
  %1 = alloca [4000 x i8], align 16
  %2 = alloca [200 x i8*], align 16
  %3 = alloca i32, align 4
  %4 = alloca i32, align 4
  %5 = alloca [200 x i32], align 16
  %6 = alloca i32, align 4
  %7 = alloca i32, align 4
  %8 = alloca i32, align 4
  %9 = getelementptr inbounds [4000 x i8], [4000 x i8]* %1, i64 0, i64 0
  %10 = call i32 (i8*, ...) bitcast (i32 (...)* @gets to i32 (i8*, ...)*)(i8* %9)
  %11 = getelementptr inbounds [4000 x i8], [4000 x i8]* %1, i64 0, i64 0
  %12 = getelementptr inbounds [200 x i8*], [200 x i8*]* %2, i64 0, i64 0
  store i8* %11, i8** %12, align 16
  store i32 0, i32* %3, align 4
  store i32 1, i32* %4, align 4
  br label %13

13:                                               ; preds = %64, %0
  %14 = load i32, i32* %3, align 4
  %15 = sext i32 %14 to i64
  %16 = getelementptr inbounds [4000 x i8], [4000 x i8]* %1, i64 0, i64 %15
  %17 = load i8, i8* %16, align 1
  %18 = sext i8 %17 to i32
  %19 = icmp ne i32 %18, 0
  br i1 %19, label %20, label %67

20:                                               ; preds = %13
  %21 = load i32, i32* %3, align 4
  %22 = sext i32 %21 to i64
  %23 = getelementptr inbounds [4000 x i8], [4000 x i8]* %1, i64 0, i64 %22
  %24 = load i8, i8* %23, align 1
  %25 = sext i8 %24 to i32
  %26 = icmp eq i32 %25, 44
  br i1 %26, label %34, label %27

27:                                               ; preds = %20
  %28 = load i32, i32* %3, align 4
  %29 = sext i32 %28 to i64
  %30 = getelementptr inbounds [4000 x i8], [4000 x i8]* %1, i64 0, i64 %29
  %31 = load i8, i8* %30, align 1
  %32 = sext i8 %31 to i32
  %33 = icmp eq i32 %32, 32
  br i1 %33, label %34, label %64

34:                                               ; preds = %27, %20
  %35 = load i32, i32* %3, align 4
  %36 = sext i32 %35 to i64
  %37 = getelementptr inbounds [4000 x i8], [4000 x i8]* %1, i64 0, i64 %36
  store i8 0, i8* %37, align 1
  %38 = load i32, i32* %3, align 4
  %39 = add nsw i32 %38, 1
  %40 = sext i32 %39 to i64
  %41 = getelementptr inbounds [4000 x i8], [4000 x i8]* %1, i64 0, i64 %40
  %42 = load i8, i8* %41, align 1
  %43 = sext i8 %42 to i32
  %44 = icmp ne i32 %43, 44
  br i1 %44, label %45, label %63

45:                                               ; preds = %34
  %46 = load i32, i32* %3, align 4
  %47 = add nsw i32 %46, 1
  %48 = sext i32 %47 to i64
  %49 = getelementptr inbounds [4000 x i8], [4000 x i8]* %1, i64 0, i64 %48
  %50 = load i8, i8* %49, align 1
  %51 = sext i8 %50 to i32
  %52 = icmp ne i32 %51, 32
  br i1 %52, label %53, label %63

53:                                               ; preds = %45
  %54 = getelementptr inbounds [4000 x i8], [4000 x i8]* %1, i64 0, i64 0
  %55 = load i32, i32* %3, align 4
  %56 = sext i32 %55 to i64
  %57 = getelementptr inbounds i8, i8* %54, i64 %56
  %58 = getelementptr inbounds i8, i8* %57, i64 1
  %59 = load i32, i32* %4, align 4
  %60 = add nsw i32 %59, 1
  store i32 %60, i32* %4, align 4
  %61 = sext i32 %59 to i64
  %62 = getelementptr inbounds [200 x i8*], [200 x i8*]* %2, i64 0, i64 %61
  store i8* %58, i8** %62, align 8
  br label %63

63:                                               ; preds = %53, %45, %34
  br label %64

64:                                               ; preds = %63, %27
  %65 = load i32, i32* %3, align 4
  %66 = add nsw i32 %65, 1
  store i32 %66, i32* %3, align 4
  br label %13

67:                                               ; preds = %13
  store i32 0, i32* %7, align 4
  store i32 0, i32* %8, align 4
  store i32 0, i32* %6, align 4
  br label %68

68:                                               ; preds = %108, %67
  %69 = load i32, i32* %6, align 4
  %70 = load i32, i32* %4, align 4
  %71 = sub nsw i32 %70, 1
  %72 = icmp sle i32 %69, %71
  br i1 %72, label %73, label %111

73:                                               ; preds = %68
  %74 = load i32, i32* %6, align 4
  %75 = sext i32 %74 to i64
  %76 = getelementptr inbounds [200 x i8*], [200 x i8*]* %2, i64 0, i64 %75
  %77 = load i8*, i8** %76, align 8
  %78 = call i64 @strlen(i8* %77) #3
  %79 = trunc i64 %78 to i32
  %80 = load i32, i32* %6, align 4
  %81 = sext i32 %80 to i64
  %82 = getelementptr inbounds [200 x i32], [200 x i32]* %5, i64 0, i64 %81
  store i32 %79, i32* %82, align 4
  %83 = load i32, i32* %7, align 4
  %84 = sext i32 %83 to i64
  %85 = getelementptr inbounds [200 x i32], [200 x i32]* %5, i64 0, i64 %84
  %86 = load i32, i32* %85, align 4
  %87 = load i32, i32* %6, align 4
  %88 = sext i32 %87 to i64
  %89 = getelementptr inbounds [200 x i32], [200 x i32]* %5, i64 0, i64 %88
  %90 = load i32, i32* %89, align 4
  %91 = icmp slt i32 %86, %90
  br i1 %91, label %92, label %94

92:                                               ; preds = %73
  %93 = load i32, i32* %6, align 4
  store i32 %93, i32* %7, align 4
  br label %107

94:                                               ; preds = %73
  %95 = load i32, i32* %8, align 4
  %96 = sext i32 %95 to i64
  %97 = getelementptr inbounds [200 x i32], [200 x i32]* %5, i64 0, i64 %96
  %98 = load i32, i32* %97, align 4
  %99 = load i32, i32* %6, align 4
  %100 = sext i32 %99 to i64
  %101 = getelementptr inbounds [200 x i32], [200 x i32]* %5, i64 0, i64 %100
  %102 = load i32, i32* %101, align 4
  %103 = icmp sgt i32 %98, %102
  br i1 %103, label %104, label %106

104:                                              ; preds = %94
  %105 = load i32, i32* %6, align 4
  store i32 %105, i32* %8, align 4
  br label %106

106:                                              ; preds = %104, %94
  br label %107

107:                                              ; preds = %106, %92
  br label %108

108:                                              ; preds = %107
  %109 = load i32, i32* %6, align 4
  %110 = add nsw i32 %109, 1
  store i32 %110, i32* %6, align 4
  br label %68

111:                                              ; preds = %68
  %112 = load i32, i32* %7, align 4
  %113 = sext i32 %112 to i64
  %114 = getelementptr inbounds [200 x i8*], [200 x i8*]* %2, i64 0, i64 %113
  %115 = load i8*, i8** %114, align 8
  %116 = call i32 @puts(i8* %115)
  %117 = load i32, i32* %8, align 4
  %118 = sext i32 %117 to i64
  %119 = getelementptr inbounds [200 x i8*], [200 x i8*]* %2, i64 0, i64 %118
  %120 = load i8*, i8** %119, align 8
  %121 = call i32 @puts(i8* %120)
  ret void
}

declare dso_local i32 @gets(...) #1

; Function Attrs: nounwind readonly
declare dso_local i64 @strlen(i8*) #2

declare dso_local i32 @puts(i8*) #1


!llvm.module.flags = !{!0}
!llvm.ident = !{!1}

!0 = !{i32 1, !"wchar_size", i32 4}
!1 = !{!"clang version 10.0.0-4ubuntu1 "}
